target datalayout = "e-m:e-p270:32:32-p271:32:32-p272:64:64-i64:64-i128:128-f80:128-n8:16:32:64-S128"
target triple = "x86_64-pc-linux-gnu"

%struct.acct_gather_energy = type { i32, i64, i64, i32, i64, i64, i64 }

@local_energy = internal global ptr null, align 8
@.str = private unnamed_addr constant [47 x i8] c"acct_gather_energy_p_get_data: unknown enum %d\00", align 1

; Function Attrs: nounwind uwtable
define dso_local i32 @acct_gather_energy_p_get_data(i32 noundef %0, ptr noundef %1) #0 {
  %3 = alloca i32, align 4
  %4 = alloca ptr, align 8
  %5 = alloca i32, align 4
  %6 = alloca ptr, align 8
  %7 = alloca ptr, align 8
  %8 = alloca ptr, align 8
  store i32 %0, ptr %3, align 4
  store ptr %1, ptr %4, align 8
  call void @llvm.lifetime.start.p0(i64 4, ptr %5) #5
  store i32 0, ptr %5, align 4
  call void @llvm.lifetime.start.p0(i64 8, ptr %6) #5
  %9 = load ptr, ptr %4, align 8
  store ptr %9, ptr %6, align 8
  call void @llvm.lifetime.start.p0(i64 8, ptr %7) #5
  %10 = load ptr, ptr %4, align 8
  store ptr %10, ptr %7, align 8
  call void @llvm.lifetime.start.p0(i64 8, ptr %8) #5
  %11 = load ptr, ptr %4, align 8
  store ptr %11, ptr %8, align 8
  %12 = load i32, ptr %3, align 4
  switch i32 %12, label %34 [
    i32 0, label %13
    i32 7, label %13
    i32 6, label %24
    i32 1, label %24
    i32 4, label %27
    i32 5, label %32
  ]

13:                                               ; preds = %2, %2
  %14 = load ptr, ptr @local_energy, align 8
  %15 = getelementptr inbounds nuw %struct.acct_gather_energy, ptr %14, i32 0, i32 3
  %16 = load i32, ptr %15, align 8
  %17 = icmp eq i32 %16, -2
  br i1 %17, label %18, label %21

18:                                               ; preds = %13
  %19 = load ptr, ptr %6, align 8
  %20 = getelementptr inbounds nuw %struct.acct_gather_energy, ptr %19, i32 0, i32 2
  store i64 -2, ptr %20, align 8
  br label %23

21:                                               ; preds = %13
  %22 = load ptr, ptr %6, align 8
  call void @_get_joules_task(ptr noundef %22)
  br label %23

23:                                               ; preds = %21, %18
  br label %37

24:                                               ; preds = %2, %2
  %25 = load ptr, ptr %6, align 8
  %26 = load ptr, ptr @local_energy, align 8
  call void @llvm.memcpy.p0.p0.i64(ptr align 8 %25, ptr align 8 %26, i64 56, i1 false)
  br label %37

27:                                               ; preds = %2
  %28 = load ptr, ptr @local_energy, align 8
  %29 = getelementptr inbounds nuw %struct.acct_gather_energy, ptr %28, i32 0, i32 5
  %30 = load i64, ptr %29, align 8
  %31 = load ptr, ptr %7, align 8
  store i64 %30, ptr %31, align 8
  br label %37

32:                                               ; preds = %2
  %33 = load ptr, ptr %8, align 8
  store i16 1, ptr %33, align 2
  br label %37

34:                                               ; preds = %2
  %35 = load i32, ptr %3, align 4
  %36 = call i32 (ptr, ...) @slurm_error(ptr noundef @.str, i32 noundef %35)
  store i32 -1, ptr %5, align 4
  br label %37

37:                                               ; preds = %34, %32, %27, %24, %23
  %38 = load i32, ptr %5, align 4
  call void @llvm.lifetime.end.p0(i64 8, ptr %8) #5
  call void @llvm.lifetime.end.p0(i64 8, ptr %7) #5
  call void @llvm.lifetime.end.p0(i64 8, ptr %6) #5
  call void @llvm.lifetime.end.p0(i64 4, ptr %5) #5
  ret i32 %38
}