; Function Attrs: nounwind uwtable
define dso_local range(i32 -1, 1) i32 @acct_gather_energy_p_get_data(i32 noundef %0, ptr noundef captures(none) %1) local_unnamed_addr #0 {
  switch i32 %0, label %18 [
    i32 0, label %3
    i32 7, label %3
    i32 6, label %11
    i32 1, label %11
    i32 4, label %13
    i32 5, label %17
  ]

3:                                                ; preds = %2, %2
  %4 = load ptr, ptr @local_energy, align 8
  %5 = getelementptr inbounds nuw i8, ptr %4, i64 24
  %6 = load i32, ptr %5, align 8
  %7 = icmp eq i32 %6, -2
  br i1 %7, label %8, label %10

8:                                                ; preds = %3
  %9 = getelementptr inbounds nuw i8, ptr %1, i64 16
  store i64 -2, ptr %9, align 8
  br label %20

10:                                               ; preds = %3
  tail call fastcc void @_get_joules_task(ptr noundef %1)
  br label %20

11:                                               ; preds = %2, %2
  %12 = load ptr, ptr @local_energy, align 8
  tail call void @llvm.memcpy.p0.p0.i64(ptr noundef nonnull align 8 dereferenceable(56) %1, ptr noundef nonnull align 8 dereferenceable(56) %12, i64 56, i1 false)
  br label %20

13:                                               ; preds = %2
  %14 = load ptr, ptr @local_energy, align 8
  %15 = getelementptr inbounds nuw i8, ptr %14, i64 40
  %16 = load i64, ptr %15, align 8
  store i64 %16, ptr %1, align 8
  br label %20

17:                                               ; preds = %2
  store i16 1, ptr %1, align 2
  br label %20

18:                                               ; preds = %2
  %19 = tail call i32 (ptr, ...) @slurm_error(ptr noundef nonnull @.str, i32 noundef %0) #8
  br label %20

20:                                               ; preds = %8, %10, %18, %17, %13, %11
  %.0 = phi i32 [ -1, %18 ], [ 0, %17 ], [ 0, %13 ], [ 0, %11 ], [ 0, %8 ], [ 0, %10 ]
  ret i32 %.0
}